; Function Attrs: mustprogress ssp uwtable
define void @_ZN6open3d13visualization10Visualizer20WindowResizeCallbackEP10GLFWwindowii(ptr noundef nonnull align 8 captures(none) dereferenceable(456) initializes((168, 169)) %0, ptr noundef readnone captures(none) %1, i32 noundef %2, i32 noundef %3) unnamed_addr #4 align 2 {
  %5 = getelementptr inbounds nuw i8, ptr %0, i64 192
  %6 = load ptr, ptr %5, align 8, !tbaa !98
  %7 = load ptr, ptr %6, align 16, !tbaa !96
  %8 = getelementptr inbounds nuw i8, ptr %7, i64 32
  %9 = load ptr, ptr %8, align 8
  tail call void %9(ptr noundef nonnull align 16 dereferenceable(728) %6, i32 noundef %2, i32 noundef %3)
  %10 = getelementptr inbounds nuw i8, ptr %0, i64 168
  store i8 1, ptr %10, align 8, !tbaa !38
  ret void
}